target datalayout = "e-m:e-p270:32:32-p271:32:32-p272:64:64-i64:64-i128:128-f80:128-n8:16:32:64-S128"
target triple = "x86_64-pc-linux-gnu"

%"class.std::basic_string_view" = type { i64, ptr }

; Function Attrs: mustprogress nounwind uwtable
define linkonce_odr dso_local noundef nonnull align 1 dereferenceable(1) ptr @_ZNKSt17basic_string_viewIcSt11char_traitsIcEEixEm(ptr noundef nonnull align 8 dereferenceable(16) %0, i64 noundef %1) #1 comdat align 2 {
  %3 = alloca ptr, align 8
  %4 = alloca i64, align 8
  store ptr %0, ptr %3, align 8, !tbaa !10
  store i64 %1, ptr %4, align 8, !tbaa !16
  %5 = load ptr, ptr %3, align 8
  br label %6

6:                                                ; preds = %2
  br label %7

7:                                                ; preds = %6
  br label %8

8:                                                ; preds = %7
  %9 = getelementptr inbounds nuw %"class.std::basic_string_view", ptr %5, i32 0, i32 1
  %10 = load ptr, ptr %9, align 8, !tbaa !17
  %11 = load i64, ptr %4, align 8, !tbaa !16
  %12 = getelementptr inbounds nuw i8, ptr %10, i64 %11
  ret ptr %12
}

; Function Attrs: mustprogress nounwind uwtable
define linkonce_odr dso_local noundef i64 @_ZNKSt17basic_string_viewIcSt11char_traitsIcEE4sizeEv(ptr noundef nonnull align 8 dereferenceable(16) %0) #1 comdat align 2 {
  %2 = alloca ptr, align 8
  store ptr %0, ptr %2, align 8, !tbaa !10
  %3 = load ptr, ptr %2, align 8
  %4 = getelementptr inbounds nuw %"class.std::basic_string_view", ptr %3, i32 0, i32 0
  %5 = load i64, ptr %4, align 8, !tbaa !12
  ret i64 %5
}

; Function Attrs: mustprogress nounwind uwtable
define dso_local noundef zeroext i1 @_ZN7cmValue4IsOnESt17basic_string_viewIcSt11char_traitsIcEE(i64 %0, ptr %1) #1 align 2 {
  %3 = alloca i1, align 1
  %4 = alloca %"class.std::basic_string_view", align 8
  %5 = getelementptr inbounds nuw { i64, ptr }, ptr %4, i32 0, i32 0
  store i64 %0, ptr %5, align 8
  %6 = getelementptr inbounds nuw { i64, ptr }, ptr %4, i32 0, i32 1
  store ptr %1, ptr %6, align 8
  %7 = call noundef i64 @_ZNKSt17basic_string_viewIcSt11char_traitsIcEE4sizeEv(ptr noundef nonnull align 8 dereferenceable(16) %4) #2
  switch i64 %7, label %127 [
    i64 1, label %8
    i64 2, label %25
    i64 3, label %49
    i64 4, label %83
  ]

8:                                                ; preds = %2
  %9 = call noundef nonnull align 1 dereferenceable(1) ptr @_ZNKSt17basic_string_viewIcSt11char_traitsIcEEixEm(ptr noundef nonnull align 8 dereferenceable(16) %4, i64 noundef 0) #2
  %10 = load i8, ptr %9, align 1, !tbaa !9
  %11 = sext i8 %10 to i32
  %12 = icmp eq i32 %11, 49
  br i1 %12, label %23, label %13

13:                                               ; preds = %8
  %14 = call noundef nonnull align 1 dereferenceable(1) ptr @_ZNKSt17basic_string_viewIcSt11char_traitsIcEEixEm(ptr noundef nonnull align 8 dereferenceable(16) %4, i64 noundef 0) #2
  %15 = load i8, ptr %14, align 1, !tbaa !9
  %16 = sext i8 %15 to i32
  %17 = icmp eq i32 %16, 89
  br i1 %17, label %23, label %18

18:                                               ; preds = %13
  %19 = call noundef nonnull align 1 dereferenceable(1) ptr @_ZNKSt17basic_string_viewIcSt11char_traitsIcEEixEm(ptr noundef nonnull align 8 dereferenceable(16) %4, i64 noundef 0) #2
  %20 = load i8, ptr %19, align 1, !tbaa !9
  %21 = sext i8 %20 to i32
  %22 = icmp eq i32 %21, 121
  br label %23

23:                                               ; preds = %18, %13, %8
  %24 = phi i1 [ true, %13 ], [ true, %8 ], [ %22, %18 ]
  store i1 %24, ptr %3, align 1
  br label %129

25:                                               ; preds = %2
  %26 = call noundef nonnull align 1 dereferenceable(1) ptr @_ZNKSt17basic_string_viewIcSt11char_traitsIcEEixEm(ptr noundef nonnull align 8 dereferenceable(16) %4, i64 noundef 0) #2
  %27 = load i8, ptr %26, align 1, !tbaa !9
  %28 = sext i8 %27 to i32
  %29 = icmp eq i32 %28, 79
  br i1 %29, label %35, label %30

30:                                               ; preds = %25
  %31 = call noundef nonnull align 1 dereferenceable(1) ptr @_ZNKSt17basic_string_viewIcSt11char_traitsIcEEixEm(ptr noundef nonnull align 8 dereferenceable(16) %4, i64 noundef 0) #2
  %32 = load i8, ptr %31, align 1, !tbaa !9
  %33 = sext i8 %32 to i32
  %34 = icmp eq i32 %33, 111
  br i1 %34, label %35, label %47

35:                                               ; preds = %30, %25
  %36 = call noundef nonnull align 1 dereferenceable(1) ptr @_ZNKSt17basic_string_viewIcSt11char_traitsIcEEixEm(ptr noundef nonnull align 8 dereferenceable(16) %4, i64 noundef 1) #2
  %37 = load i8, ptr %36, align 1, !tbaa !9
  %38 = sext i8 %37 to i32
  %39 = icmp eq i32 %38, 78
  br i1 %39, label %45, label %40

40:                                               ; preds = %35
  %41 = call noundef nonnull align 1 dereferenceable(1) ptr @_ZNKSt17basic_string_viewIcSt11char_traitsIcEEixEm(ptr noundef nonnull align 8 dereferenceable(16) %4, i64 noundef 1) #2
  %42 = load i8, ptr %41, align 1, !tbaa !9
  %43 = sext i8 %42 to i32
  %44 = icmp eq i32 %43, 110
  br label %45

45:                                               ; preds = %40, %35
  %46 = phi i1 [ true, %35 ], [ %44, %40 ]
  br label %47

47:                                               ; preds = %45, %30
  %48 = phi i1 [ false, %30 ], [ %46, %45 ]
  store i1 %48, ptr %3, align 1
  br label %129

49:                                               ; preds = %2
  %50 = call noundef nonnull align 1 dereferenceable(1) ptr @_ZNKSt17basic_string_viewIcSt11char_traitsIcEEixEm(ptr noundef nonnull align 8 dereferenceable(16) %4, i64 noundef 0) #2
  %51 = load i8, ptr %50, align 1, !tbaa !9
  %52 = sext i8 %51 to i32
  %53 = icmp eq i32 %52, 89
  br i1 %53, label %59, label %54

54:                                               ; preds = %49
  %55 = call noundef nonnull align 1 dereferenceable(1) ptr @_ZNKSt17basic_string_viewIcSt11char_traitsIcEEixEm(ptr noundef nonnull align 8 dereferenceable(16) %4, i64 noundef 0) #2
  %56 = load i8, ptr %55, align 1, !tbaa !9
  %57 = sext i8 %56 to i32
  %58 = icmp eq i32 %57, 121
  br i1 %58, label %59, label %81

59:                                               ; preds = %54, %49
  %60 = call noundef nonnull align 1 dereferenceable(1) ptr @_ZNKSt17basic_string_viewIcSt11char_traitsIcEEixEm(ptr noundef nonnull align 8 dereferenceable(16) %4, i64 noundef 1) #2
  %61 = load i8, ptr %60, align 1, !tbaa !9
  %62 = sext i8 %61 to i32
  %63 = icmp eq i32 %62, 69
  br i1 %63, label %69, label %64

64:                                               ; preds = %59
  %65 = call noundef nonnull align 1 dereferenceable(1) ptr @_ZNKSt17basic_string_viewIcSt11char_traitsIcEEixEm(ptr noundef nonnull align 8 dereferenceable(16) %4, i64 noundef 1) #2
  %66 = load i8, ptr %65, align 1, !tbaa !9
  %67 = sext i8 %66 to i32
  %68 = icmp eq i32 %67, 101
  br i1 %68, label %69, label %81

69:                                               ; preds = %64, %59
  %70 = call noundef nonnull align 1 dereferenceable(1) ptr @_ZNKSt17basic_string_viewIcSt11char_traitsIcEEixEm(ptr noundef nonnull align 8 dereferenceable(16) %4, i64 noundef 2) #2
  %71 = load i8, ptr %70, align 1, !tbaa !9
  %72 = sext i8 %71 to i32
  %73 = icmp eq i32 %72, 83
  br i1 %73, label %79, label %74

74:                                               ; preds = %69
  %75 = call noundef nonnull align 1 dereferenceable(1) ptr @_ZNKSt17basic_string_viewIcSt11char_traitsIcEEixEm(ptr noundef nonnull align 8 dereferenceable(16) %4, i64 noundef 2) #2
  %76 = load i8, ptr %75, align 1, !tbaa !9
  %77 = sext i8 %76 to i32
  %78 = icmp eq i32 %77, 115
  br label %79

79:                                               ; preds = %74, %69
  %80 = phi i1 [ true, %69 ], [ %78, %74 ]
  br label %81

81:                                               ; preds = %79, %64, %54
  %82 = phi i1 [ false, %64 ], [ false, %54 ], [ %80, %79 ]
  store i1 %82, ptr %3, align 1
  br label %129

83:                                               ; preds = %2
  %84 = call noundef nonnull align 1 dereferenceable(1) ptr @_ZNKSt17basic_string_viewIcSt11char_traitsIcEEixEm(ptr noundef nonnull align 8 dereferenceable(16) %4, i64 noundef 0) #2
  %85 = load i8, ptr %84, align 1, !tbaa !9
  %86 = sext i8 %85 to i32
  %87 = icmp eq i32 %86, 84
  br i1 %87, label %93, label %88

88:                                               ; preds = %83
  %89 = call noundef nonnull align 1 dereferenceable(1) ptr @_ZNKSt17basic_string_viewIcSt11char_traitsIcEEixEm(ptr noundef nonnull align 8 dereferenceable(16) %4, i64 noundef 0) #2
  %90 = load i8, ptr %89, align 1, !tbaa !9
  %91 = sext i8 %90 to i32
  %92 = icmp eq i32 %91, 116
  br i1 %92, label %93, label %125

93:                                               ; preds = %88, %83
  %94 = call noundef nonnull align 1 dereferenceable(1) ptr @_ZNKSt17basic_string_viewIcSt11char_traitsIcEEixEm(ptr noundef nonnull align 8 dereferenceable(16) %4, i64 noundef 1) #2
  %95 = load i8, ptr %94, align 1, !tbaa !9
  %96 = sext i8 %95 to i32
  %97 = icmp eq i32 %96, 82
  br i1 %97, label %103, label %98

98:                                               ; preds = %93
  %99 = call noundef nonnull align 1 dereferenceable(1) ptr @_ZNKSt17basic_string_viewIcSt11char_traitsIcEEixEm(ptr noundef nonnull align 8 dereferenceable(16) %4, i64 noundef 1) #2
  %100 = load i8, ptr %99, align 1, !tbaa !9
  %101 = sext i8 %100 to i32
  %102 = icmp eq i32 %101, 114
  br i1 %102, label %103, label %125

103:                                              ; preds = %98, %93
  %104 = call noundef nonnull align 1 dereferenceable(1) ptr @_ZNKSt17basic_string_viewIcSt11char_traitsIcEEixEm(ptr noundef nonnull align 8 dereferenceable(16) %4, i64 noundef 2) #2
  %105 = load i8, ptr %104, align 1, !tbaa !9
  %106 = sext i8 %105 to i32
  %107 = icmp eq i32 %106, 85
  br i1 %107, label %113, label %108

108:                                              ; preds = %103
  %109 = call noundef nonnull align 1 dereferenceable(1) ptr @_ZNKSt17basic_string_viewIcSt11char_traitsIcEEixEm(ptr noundef nonnull align 8 dereferenceable(16) %4, i64 noundef 2) #2
  %110 = load i8, ptr %109, align 1, !tbaa !9
  %111 = sext i8 %110 to i32
  %112 = icmp eq i32 %111, 117
  br i1 %112, label %113, label %125

113:                                              ; preds = %108, %103
  %114 = call noundef nonnull align 1 dereferenceable(1) ptr @_ZNKSt17basic_string_viewIcSt11char_traitsIcEEixEm(ptr noundef nonnull align 8 dereferenceable(16) %4, i64 noundef 3) #2
  %115 = load i8, ptr %114, align 1, !tbaa !9
  %116 = sext i8 %115 to i32
  %117 = icmp eq i32 %116, 69
  br i1 %117, label %123, label %118

118:                                              ; preds = %113
  %119 = call noundef nonnull align 1 dereferenceable(1) ptr @_ZNKSt17basic_string_viewIcSt11char_traitsIcEEixEm(ptr noundef nonnull align 8 dereferenceable(16) %4, i64 noundef 3) #2
  %120 = load i8, ptr %119, align 1, !tbaa !9
  %121 = sext i8 %120 to i32
  %122 = icmp eq i32 %121, 101
  br label %123

123:                                              ; preds = %118, %113
  %124 = phi i1 [ true, %113 ], [ %122, %118 ]
  br label %125

125:                                              ; preds = %123, %108, %98, %88
  %126 = phi i1 [ false, %108 ], [ false, %98 ], [ false, %88 ], [ %124, %123 ]
  store i1 %126, ptr %3, align 1
  br label %129

127:                                              ; preds = %2
  br label %128

128:                                              ; preds = %127
  store i1 false, ptr %3, align 1
  br label %129

129:                                              ; preds = %128, %125, %81, %47, %23
  %130 = load i1, ptr %3, align 1
  ret i1 %130
}