; Function Attrs: mustprogress nofree norecurse nosync nounwind willreturn memory(argmem: read) uwtable
define dso_local noundef zeroext i1 @_ZN7cmValue4IsOnESt17basic_string_viewIcSt11char_traitsIcEE(i64 %0, ptr readonly captures(none) %1) local_unnamed_addr #2 align 2 {
  switch i64 %0, label %switch.edge [
    i64 1, label %3
    i64 2, label %6
    i64 3, label %12
    i64 4, label %21
  ]

3:                                                ; preds = %2
  %4 = load i8, ptr %1, align 1, !tbaa !4
  switch i8 %4, label %5 [
    i8 49, label %switch.edge
    i8 89, label %switch.edge
    i8 121, label %switch.edge
  ]

5:                                                ; preds = %3
  br label %switch.edge

6:                                                ; preds = %2
  %7 = load i8, ptr %1, align 1, !tbaa !4
  switch i8 %7, label %switch.edge [
    i8 79, label %8
    i8 111, label %8
  ]

8:                                                ; preds = %6, %6
  %9 = getelementptr inbounds nuw i8, ptr %1, i64 1
  %10 = load i8, ptr %9, align 1, !tbaa !4
  %11 = and i8 %10, -33
  %spec.select = icmp eq i8 %11, 78
  br label %switch.edge

12:                                               ; preds = %2
  %13 = load i8, ptr %1, align 1, !tbaa !4
  switch i8 %13, label %switch.edge [
    i8 89, label %14
    i8 121, label %14
  ]

14:                                               ; preds = %12, %12
  %15 = getelementptr inbounds nuw i8, ptr %1, i64 1
  %16 = load i8, ptr %15, align 1, !tbaa !4
  switch i8 %16, label %switch.edge [
    i8 69, label %17
    i8 101, label %17
  ]

17:                                               ; preds = %14, %14
  %18 = getelementptr inbounds nuw i8, ptr %1, i64 2
  %19 = load i8, ptr %18, align 1, !tbaa !4
  %20 = and i8 %19, -33
  %spec.select21 = icmp eq i8 %20, 83
  br label %switch.edge

21:                                               ; preds = %2
  %22 = load i8, ptr %1, align 1, !tbaa !4
  switch i8 %22, label %switch.edge [
    i8 84, label %23
    i8 116, label %23
  ]

23:                                               ; preds = %21, %21
  %24 = getelementptr inbounds nuw i8, ptr %1, i64 1
  %25 = load i8, ptr %24, align 1, !tbaa !4
  switch i8 %25, label %switch.edge [
    i8 82, label %26
    i8 114, label %26
  ]

26:                                               ; preds = %23, %23
  %27 = getelementptr inbounds nuw i8, ptr %1, i64 2
  %28 = load i8, ptr %27, align 1, !tbaa !4
  switch i8 %28, label %switch.edge [
    i8 85, label %29
    i8 117, label %29
  ]

29:                                               ; preds = %26, %26
  %30 = getelementptr inbounds nuw i8, ptr %1, i64 3
  %31 = load i8, ptr %30, align 1, !tbaa !4
  %32 = and i8 %31, -33
  %spec.select22 = icmp eq i8 %32, 69
  br label %switch.edge

switch.edge:                                      ; preds = %29, %17, %8, %3, %26, %23, %21, %14, %12, %6, %3, %3, %2, %5
  %.0 = phi i1 [ true, %3 ], [ false, %5 ], [ false, %2 ], [ true, %3 ], [ false, %6 ], [ %spec.select, %8 ], [ false, %12 ], [ false, %14 ], [ %spec.select21, %17 ], [ false, %21 ], [ false, %23 ], [ false, %26 ], [ %spec.select22, %29 ], [ true, %3 ]
  ret i1 %.0
}